; Function Attrs: mustprogress nofree norecurse nosync nounwind willreturn memory(argmem: readwrite) uwtable
define void @_ZN6icu_7514SimpleTimeZone10setEndRuleEiiiiNS0_8TimeModeEaR10UErrorCode(ptr nocapture noundef nonnull align 8 dereferenceable(160) %this, i32 noundef %month, i32 noundef %dayOfMonth, i32 noundef %dayOfWeek, i32 noundef %time, i32 noundef %mode, i8 noundef signext %after, ptr nocapture noundef nonnull align 4 dereferenceable(4) %status) local_unnamed_addr #5 align 2 {
entry:
  %tobool.not = icmp eq i8 %after, 0
  %sub = sub nsw i32 0, %dayOfMonth
  %cond = select i1 %tobool.not, i32 %sub, i32 %dayOfMonth
  %conv.i = trunc i32 %month to i8
  %endMonth.i = getelementptr inbounds i8, ptr %this, i64 88
  store i8 %conv.i, ptr %endMonth.i, align 8
  %conv2.i = trunc i32 %cond to i8
  %endDay.i = getelementptr inbounds i8, ptr %this, i64 89
  store i8 %conv2.i, ptr %endDay.i, align 1
  %0 = trunc i32 %dayOfWeek to i8
  %conv3.i = sub i8 0, %0
  %endDayOfWeek.i = getelementptr inbounds i8, ptr %this, i64 90
  store i8 %conv3.i, ptr %endDayOfWeek.i, align 2
  %endTime.i = getelementptr inbounds i8, ptr %this, i64 92
  store i32 %time, ptr %endTime.i, align 4
  %endTimeMode.i = getelementptr inbounds i8, ptr %this, i64 84
  store i32 %mode, ptr %endTimeMode.i, align 4
  %1 = load i32, ptr %status, align 4
  %cmp.i.i.i = icmp slt i32 %1, 1
  br i1 %cmp.i.i.i, label %if.end.i.i, label %_ZN6icu_7514SimpleTimeZone10setEndRuleEiiiiNS0_8TimeModeER10UErrorCode.exit

if.end.i.i:                                       ; preds = %entry
  %startDay.i.i = getelementptr inbounds i8, ptr %this, i64 73
  %2 = load i8, ptr %startDay.i.i, align 1
  %cmp.not.i.i = icmp ne i8 %2, 0
  %cmp3.i.i = icmp ne i8 %conv2.i, 0
  %3 = and i1 %cmp3.i.i, %cmp.not.i.i
  %conv4.i.i = zext i1 %3 to i8
  %useDaylight.i.i = getelementptr inbounds i8, ptr %this, i64 104
  store i8 %conv4.i.i, ptr %useDaylight.i.i, align 8
  br i1 %3, label %land.lhs.true.i.i, label %if.end10.i.i

land.lhs.true.i.i:                                ; preds = %if.end.i.i
  %dstSavings.i.i = getelementptr inbounds i8, ptr %this, i64 116
  %4 = load i32, ptr %dstSavings.i.i, align 4
  %cmp7.i.i = icmp eq i32 %4, 0
  br i1 %cmp7.i.i, label %if.then8.i.i, label %if.then14.i.i

if.then8.i.i:                                     ; preds = %land.lhs.true.i.i
  store i32 3600000, ptr %dstSavings.i.i, align 4
  br label %if.then14.i.i

if.end10.i.i:                                     ; preds = %if.end.i.i
  %cmp13.not.i.i = icmp eq i8 %conv2.i, 0
  br i1 %cmp13.not.i.i, label %_ZN6icu_7514SimpleTimeZone10setEndRuleEiiiiNS0_8TimeModeER10UErrorCode.exit, label %if.then14.i.i

if.then14.i.i:                                    ; preds = %if.end10.i.i, %if.then8.i.i, %land.lhs.true.i.i
  %or.cond.i.i = icmp ugt i8 %conv.i, 11
  br i1 %or.cond.i.i, label %if.end91.sink.split.i.i, label %if.end21.i.i

if.end21.i.i:                                     ; preds = %if.then14.i.i
  %or.cond7.i.i = icmp ugt i32 %time, 86400000
  %or.cond8.i.i = icmp ugt i32 %mode, 2
  %or.cond10.i.i = or i1 %or.cond7.i.i, %or.cond8.i.i
  br i1 %or.cond10.i.i, label %if.end91.sink.split.i.i, label %if.end32.i.i

if.end32.i.i:                                     ; preds = %if.end21.i.i
  %cmp34.i.i = icmp eq i8 %0, 0
  br i1 %cmp34.i.i, label %if.end65.thread.i.i, label %if.else.i.i

if.end65.thread.i.i:                              ; preds = %if.end32.i.i
  %endMode.i.i = getelementptr inbounds i8, ptr %this, i64 112
  store i32 1, ptr %endMode.i.i, align 8
  br label %if.else78.i.i

if.else.i.i:                                      ; preds = %if.end32.i.i
  %cmp38.i.i = icmp sgt i8 %conv3.i, 0
  br i1 %cmp38.i.i, label %if.end59.i.thread.i, label %if.else41.i.i

if.else41.i.i:                                    ; preds = %if.else.i.i
  store i8 %0, ptr %endDayOfWeek.i, align 2
  %cmp48.i.i = icmp sgt i8 %conv2.i, 0
  br i1 %cmp48.i.i, label %if.end59.i.i, label %if.else51.i.i

if.else51.i.i:                                    ; preds = %if.else41.i.i
  %sub54.i.i = sub i8 0, %conv2.i
  store i8 %sub54.i.i, ptr %endDay.i, align 1
  br label %if.end59.i.i

if.end59.i.i:                                     ; preds = %if.else51.i.i, %if.else41.i.i
  %.sink.i.i = phi i32 [ 4, %if.else51.i.i ], [ 3, %if.else41.i.i ]
  %5 = phi i8 [ %sub54.i.i, %if.else51.i.i ], [ %conv2.i, %if.else41.i.i ]
  %endMode57.i.i = getelementptr inbounds i8, ptr %this, i64 112
  store i32 %.sink.i.i, ptr %endMode57.i.i, align 8
  %cmp62.i.i = icmp sgt i8 %0, 7
  br i1 %cmp62.i.i, label %if.end91.sink.split.i.i, label %if.else78.i.i

if.end59.i.thread.i:                              ; preds = %if.else.i.i
  %endMode57.i2.i = getelementptr inbounds i8, ptr %this, i64 112
  store i32 2, ptr %endMode57.i2.i, align 8
  %cmp62.i3.i = icmp ugt i8 %conv3.i, 7
  %6 = add i8 %conv2.i, -6
  %or.cond9.i.i = icmp ult i8 %6, -11
  %or.cond.i = or i1 %cmp62.i3.i, %or.cond9.i.i
  br i1 %or.cond.i, label %if.end91.sink.split.i.i, label %_ZN6icu_7514SimpleTimeZone10setEndRuleEiiiiNS0_8TimeModeER10UErrorCode.exit

if.else78.i.i:                                    ; preds = %if.end59.i.i, %if.end65.thread.i.i
  %7 = phi i8 [ %conv2.i, %if.end65.thread.i.i ], [ %5, %if.end59.i.i ]
  %cmp81.i.i = icmp slt i8 %7, 1
  br i1 %cmp81.i.i, label %if.end91.sink.split.i.i, label %lor.lhs.false82.i.i

lor.lhs.false82.i.i:                              ; preds = %if.else78.i.i
  %conv.mask.i = and i32 %month, 15
  %idxprom.i.i = zext nneg i32 %conv.mask.i to i64
  %arrayidx.i.i = getelementptr inbounds [12 x i8], ptr @_ZN6icu_7514SimpleTimeZone17STATICMONTHLENGTHE, i64 0, i64 %idxprom.i.i
  %8 = load i8, ptr %arrayidx.i.i, align 1
  %cmp87.i.i = icmp sgt i8 %7, %8
  br i1 %cmp87.i.i, label %if.end91.sink.split.i.i, label %_ZN6icu_7514SimpleTimeZone10setEndRuleEiiiiNS0_8TimeModeER10UErrorCode.exit

if.end91.sink.split.i.i:                          ; preds = %lor.lhs.false82.i.i, %if.else78.i.i, %if.end59.i.thread.i, %if.end59.i.i, %if.end21.i.i, %if.then14.i.i
  store i32 1, ptr %status, align 4
  br label %_ZN6icu_7514SimpleTimeZone10setEndRuleEiiiiNS0_8TimeModeER10UErrorCode.exit

_ZN6icu_7514SimpleTimeZone10setEndRuleEiiiiNS0_8TimeModeER10UErrorCode.exit: ; preds = %entry, %if.end10.i.i, %if.end59.i.thread.i, %lor.lhs.false82.i.i, %if.end91.sink.split.i.i
  %transitionRulesInitialized.i = getelementptr inbounds i8, ptr %this, i64 120
  store i8 0, ptr %transitionRulesInitialized.i, align 8
  ret void
}